ccopy_reg
_reconstructor
p0
(csklearn.ensemble.weight_boosting
AdaBoostClassifier
p1
c__builtin__
object
p2
Ntp3
Rp4
(dp5
S'base_estimator'
p6
g0
(csklearn.tree.tree
DecisionTreeClassifier
p7
g2
Ntp8
Rp9
(dp10
S'presort'
p11
I00
sS'splitter'
p12
S'best'
p13
sS'min_impurity_decrease'
p14
F0.0
sS'min_impurity_split'
p15
NsS'min_samples_leaf'
p16
I5
sS'max_features'
p17
NsS'random_state'
p18
I42
sS'criterion'
p19
S'entropy'
p20
sS'min_weight_fraction_leaf'
p21
F0.0
sS'max_leaf_nodes'
p22
NsS'min_samples_split'
p23
I2
sS'_sklearn_version'
p24
S'0.19.1'
p25
sS'max_depth'
p26
I1
sS'class_weight'
p27
NsbsS'algorithm'
p28
S'SAMME.R'
p29
sS'learning_rate'
p30
I2
sS'n_estimators'
p31
I2
sg18
I42
sg24
g25
sS'estimator_params'
p32
(tsb.